(lp0
cnumpy.core.multiarray
scalar
p1
(cnumpy
dtype
p2
(S'f4'
p3
I0
I1
tp4
Rp5
(I3
S'<'
p6
NNNI-1
I-1
I0
tp7
bS'\x89\x16\x8a>'
p8
tp9
Rp10
ag1
(g5
S'\xc5\xdf\x8a>'
p11
tp12
Rp13
ag1
(g5
S'\xccG\x8e>'
p14
tp15
Rp16
ag1
(g5
S'\xbel\x91>'
p17
tp18
Rp19
ag1
(g5
S'\x07\x11\x8f>'
p20
tp21
Rp22
ag1
(g5
S'\x15\xe1\x95>'
p23
tp24
Rp25
ag1
(g5
S'y0\x97>'
p26
tp27
Rp28
ag1
(g5
S'\xcbG\x8e>'
p29
tp30
Rp31
ag1
(g5
S'/\x8c\x99>'
p32
tp33
Rp34
ag1
(g5
S's\xc8\x93>'
p35
tp36
Rp37
ag1
(g5
S'0\x97\x8f>'
p38
tp39
Rp40
ag1
(g5
S'\x94\xdb\x9a>'
p41
tp42
Rp43
ag1
(g5
S'"\xbc\x92>'
p44
tp45
Rp46
ag1
(g5
S'\rn\x9c>'
p47
tp48
Rp49
ag1
(g5
S'\xd8\x17\x95>'
p50
tp51
Rp52
ag1
(g5
S'\x9bC\x9e>'
p53
tp54
Rp55
ag1
(g5
S'>r\x8c>'
p56
tp57
Rp58
ag1
(g5
S'\x94\xdb\x9a>'
p59
tp60
Rp61
ag1
(g5
S'~\x98\x9a>'
p62
tp63
Rp64
ag1
(g5
S'($\x96>'
p65
tp66
Rp67
a.