(dp0
S'test'
p1
(lp2
cnumpy.core.multiarray
scalar
p3
(cnumpy
dtype
p4
(S'f8'
p5
I0
I1
tp6
Rp7
(I3
S'<'
p8
NNNI-1
I-1
I0
tp9
bS'\x00\x00\x00\xc0\x10\xc0\xd3?'
p10
tp11
Rp12
ag3
(g7
S'\x00\x00\x00\x80\x1a\xe5\xd7?'
p13
tp14
Rp15
ag3
(g7
S'\x00\x00\x00\x00\xeb\x0e\xd9?'
p16
tp17
Rp18
asS'x'
p19
(lp20
I1000
aI3000
aI5000
asS'train'
p21
(lp22
g3
(g4
(S'f4'
p23
I0
I1
tp24
Rp25
(I3
S'<'
p26
NNNI-1
I-1
I0
tp27
bS'\x87\x16\x19?'
p28
tp29
Rp30
ag3
(g25
S'\x08\xac\x1c?'
p31
tp32
Rp33
ag3
(g25
S'\x18\x04\x16?'
p34
tp35
Rp36
asS'epoch_time'
p37
(lp38
F0.1471280882352941
aF0.44925559016393485
aF0.7645575999999992
as.