(dp0
S'test'
p1
(lp2
cnumpy.core.multiarray
scalar
p3
(cnumpy
dtype
p4
(S'f8'
p5
I0
I1
tp6
Rp7
(I3
S'<'
p8
NNNI-1
I-1
I0
tp9
bS'\x00\x00\x00`\x93M\xc6?'
p10
tp11
Rp12
asS'x'
p13
(lp14
I100
asS'train'
p15
(lp16
g3
(g4
(S'f4'
p17
I0
I1
tp18
Rp19
(I3
S'<'
p20
NNNI-1
I-1
I0
tp21
bS'\x00\x00:?'
p22
tp23
Rp24
asS'epoch_time'
p25
(lp26
F0.09671561538461537
as.