(dp0
S'test'
p1
(lp2
cnumpy.core.multiarray
scalar
p3
(cnumpy
dtype
p4
(S'f8'
p5
I0
I1
tp6
Rp7
(I3
S'<'
p8
NNNI-1
I-1
I0
tp9
bS'\x00\x00\x00\xc07"\xdd?'
p10
tp11
Rp12
ag3
(g7
S'\x00\x00\x00\xc0\xd0\xb2\xdb?'
p13
tp14
Rp15
ag3
(g7
S'\x00\x00\x00\xc0\xf4[\xda?'
p16
tp17
Rp18
ag3
(g7
S'\x00\x00\x00\x00\xa9\xb8\xd8?'
p19
tp20
Rp21
ag3
(g7
S"\x00\x00\x00`\x14'\xd7?"
p22
tp23
Rp24
ag3
(g7
S'\x00\x00\x00\x00\xde\xe1\xd2?'
p25
tp26
Rp27
asS'x'
p28
(lp29
I50000
aI30000
aI10000
aI5000
aI3000
aI1000
asS'train'
p30
(lp31
g3
(g4
(S'f4'
p32
I0
I1
tp33
Rp34
(I3
S'<'
p35
NNNI-1
I-1
I0
tp36
bS'\x00\x00*?'
p37
tp38
Rp39
ag3
(g34
S'\x00\x00(?'
p40
tp41
Rp42
ag3
(g34
S'\x00\x00D?'
p43
tp44
Rp45
ag3
(g34
S'\x00\x00J?'
p46
tp47
Rp48
ag3
(g34
S'\x00\x00F?'
p49
tp50
Rp51
ag3
(g34
S'\x00\x00>?'
p52
tp53
Rp54
asS'epoch_time'
p55
(lp56
F15.885015105263227
aF9.428770259259224
aF3.111497818181762
aF1.6093817428571362
aF0.991278379310345
aF0.3205840731707318
as.