(dp0
S'test'
p1
(lp2
cnumpy.core.multiarray
scalar
p3
(cnumpy
dtype
p4
(S'f8'
p5
I0
I1
tp6
Rp7
(I3
S'<'
p8
NNNI-1
I-1
I0
tp9
bS'\x00\x00\x00\xc0\xae\x00\xda?'
p10
tp11
Rp12
ag3
(g7
S'\x00\x00\x00\xe0\xebh\xdd?'
p13
tp14
Rp15
ag3
(g7
S'\x00\x00\x00 \xd0\xd4\xdd?'
p16
tp17
Rp18
asS'train'
p19
(lp20
g3
(g4
(S'f4'
p21
I0
I1
tp22
Rp23
(I3
S'<'
p24
NNNI-1
I-1
I0
tp25
bS'\x87\x16\x19?'
p26
tp27
Rp28
ag3
(g23
S'\xcc\xcc\x0c?'
p29
tp30
Rp31
ag3
(g23
S'\xaa\xf1\x12?'
p32
tp33
Rp34
asS'epoch_time'
p35
(lp36
F2.949925333333331
aF4.511038511904739
aF7.464545608108094
as.