(dp0
S'x'
p1
(lp2
F0.0
aF0.2
aF0.5
aF0.8
asS'time'
p3
(lp4
F91.041928
aF97.323624
aF107.352595
aF200.1711
asS'test accuracy'
p5
(lp6
cnumpy.core.multiarray
scalar
p7
(cnumpy
dtype
p8
(S'f8'
p9
I0
I1
tp10
Rp11
(I3
S'<'
p12
NNNI-1
I-1
I0
tp13
bS'\x00\x00\x00@\x16N\xd8?'
p14
tp15
Rp16
ag7
(g11
S'\x00\x00\x00 \xbc\xa3\xd9?'
p17
tp18
Rp19
ag7
(g11
S'\x00\x00\x00@\xa3\x81\xda?'
p20
tp21
Rp22
ag7
(g11
S'\x00\x00\x00\xc0\xc0\xef\xda?'
p23
tp24
Rp25
asS'train accuracy'
p26
(lp27
g7
(g8
(S'f4'
p28
I0
I1
tp29
Rp30
(I3
S'<'
p31
NNNI-1
I-1
I0
tp32
bS'\x00\x00B?'
p33
tp34
Rp35
ag7
(g30
S'\x00\x00B?'
p36
tp37
Rp38
ag7
(g30
S'\x00\x004?'
p39
tp40
Rp41
ag7
(g30
S'\x00\x00\x12?'
p42
tp43
Rp44
as.