(lp0
(lp1
F0.0
aF0.2
aF0.5
aF0.8
aa(lp2
cnumpy.core.multiarray
scalar
p3
(cnumpy
dtype
p4
(S'f4'
p5
I0
I1
tp6
Rp7
(I3
S'<'
p8
NNNI-1
I-1
I0
tp9
bS'\x00\x00\x00?'
p10
tp11
Rp12
ag3
(g7
S'\xaa\xf1\xd2>'
p13
tp14
Rp15
ag3
(g7
S'9\xb4\xc8>'
p16
tp17
Rp18
ag3
(g7
S'\x12\x83\xc0>'
p19
tp20
Rp21
aa(lp22
g3
(g4
(S'f8'
p23
I0
I1
tp24
Rp25
(I3
S'<'
p26
NNNI-1
I-1
I0
tp27
bS'\x00\x00\x00\x00\xf6\xb8\xcb?'
p28
tp29
Rp30
ag3
(g25
S'\x00\x00\x00 \x84\x81\xcb?'
p31
tp32
Rp33
ag3
(g25
S'\x00\x00\x00`u\xbf\xca?'
p34
tp35
Rp36
ag3
(g25
S'\x00\x00\x00@Y.\xcb?'
p37
tp38
Rp39
aa(lp40
F9.278829
aF6.575725
aF6.695802
aF8.141487
aa.