(dp0
S'pooling'
p1
(dp2
S'test'
p3
(lp4
cnumpy.core.multiarray
scalar
p5
(cnumpy
dtype
p6
(S'f4'
p7
I0
I1
tp8
Rp9
(I3
S'<'
p10
NNNI-1
I-1
I0
tp11
bS'\xab\xafq>'
p12
tp13
Rp14
ag5
(g9
S'B\x7f\x87>'
p15
tp16
Rp17
ag5
(g9
S'\xfaA\x91>'
p18
tp19
Rp20
ag5
(g9
S'\x90\xb9\x9b>'
p21
tp22
Rp23
ag5
(g9
S'\x06\xc5\xa1>'
p24
tp25
Rp26
ag5
(g9
S'\xcc\x86\xa7>'
p27
tp28
Rp29
ag5
(g9
S'FO\xad>'
p30
tp31
Rp32
ag5
(g9
S"\x93'\xa8>"
p33
tp34
Rp35
ag5
(g9
S'\x12\xfa\xb4>'
p36
tp37
Rp38
ag5
(g9
S'RB\xb6>'
p39
tp40
Rp41
ag5
(g9
S':O\xbb>'
p42
tp43
Rp44
ag5
(g9
S'\x00\xf0\xbb>'
p45
tp46
Rp47
ag5
(g9
S'R\x15\xbe>'
p48
tp49
Rp50
ag5
(g9
S'\xb6\xd4\xc0>'
p51
tp52
Rp53
ag5
(g9
S'*\x02\xc2>'
p54
tp55
Rp56
ag5
(g9
S'\xb6C\xc3>'
p57
tp58
Rp59
ag5
(g9
S'\xb8\xb2\xc5>'
p60
tp61
Rp62
ag5
(g9
S'!\xec\xc7>'
p63
tp64
Rp65
ag5
(g9
S'r\x11\xca>'
p66
tp67
Rp68
ag5
(g9
S'\xe1\xc4\xcb>'
p69
tp70
Rp71
ag5
(g9
S'b\xa3\xcb>'
p72
tp73
Rp74
ag5
(g9
S'\x06<\xcd>'
p75
tp76
Rp77
ag5
(g9
S' \xbf\xcf>'
p78
tp79
Rp80
ag5
(g9
S'\x8e\x03\xcf>'
p81
tp82
Rp83
ag5
(g9
S'\xf8\xf9\xd0>'
p84
tp85
Rp86
ag5
(g9
S'Mm\xd0>'
p87
tp88
Rp89
ag5
(g9
S'jj\xd2>'
p90
tp91
Rp92
ag5
(g9
S'\x1eq\xd2>'
p93
tp94
Rp95
ag5
(g9
S'[\x8d\xd1>'
p96
tp97
Rp98
ag5
(g9
S'^\xb9\xd3>'
p99
tp100
Rp101
ag5
(g9
S'NK\xd5>'
p102
tp103
Rp104
ag5
(g9
S'\x93\x9e\xd3>'
p105
tp106
Rp107
ag5
(g9
S'\xea\xfa\xd4>'
p108
tp109
Rp110
ag5
(g9
S'3z\xd5>'
p111
tp112
Rp113
ag5
(g9
S'&\xc9\xd6>'
p114
tp115
Rp116
ag5
(g9
S'\x90P\xd6>'
p117
tp118
Rp119
ag5
(g9
S'o\x05\xd7>'
p120
tp121
Rp122
ag5
(g9
S'\x1c\xd5\xd7>'
p123
tp124
Rp125
ag5
(g9
S'\xd4U\xd7>'
p126
tp127
Rp128
ag5
(g9
S'G\x83\xd8>'
p129
tp130
Rp131
ag5
(g9
S'\x86\\\xd7>'
p132
tp133
Rp134
ag5
(g9
S'\xc5\xa4\xd8>'
p135
tp136
Rp137
ag5
(g9
S'B\x9a\xd6>'
p138
tp139
Rp140
ag5
(g9
S'\xf5\x0f\xd9>'
p141
tp142
Rp143
ag5
(g9
S'\x14\x9e\xd8>'
p144
tp145
Rp146
ag5
(g9
S'Dx\xdb>'
p147
tp148
Rp149
ag5
(g9
S'g\x80\xda>'
p150
tp151
Rp152
ag5
(g9
S'${\xd9>'
p153
tp154
Rp155
ag5
(g9
S'd\xc3\xda>'
p156
tp157
Rp158
ag5
(g9
S'\xff\xb5\xda>'
p159
tp160
Rp161
ag5
(g9
S'\xcfJ\xda>'
p162
tp163
Rp164
asS'train'
p165
(lp166
g5
(g9
S'\x00\x00p>'
p167
tp168
Rp169
ag5
(g9
S'\x00\x00\x90>'
p170
tp171
Rp172
ag5
(g9
S'\x00\x00\xb0>'
p173
tp174
Rp175
ag5
(g9
S'\x00\x00\x80>'
p176
tp177
Rp178
ag5
(g9
S'\x00\x00\xac>'
p179
tp180
Rp181
ag5
(g9
S'\x00\x00\xd8>'
p182
tp183
Rp184
ag5
(g9
S'\x00\x00\xa8>'
p185
tp186
Rp187
ag5
(g9
S'\x00\x00\xac>'
p188
tp189
Rp190
ag5
(g9
S'\x00\x00\xc8>'
p191
tp192
Rp193
ag5
(g9
S'\x00\x00\xc0>'
p194
tp195
Rp196
ag5
(g9
S'\x00\x00\xbc>'
p197
tp198
Rp199
ag5
(g9
S'\x00\x00\xc4>'
p200
tp201
Rp202
ag5
(g9
S'\x00\x00\xe4>'
p203
tp204
Rp205
ag5
(g9
S'\x00\x00\xbc>'
p206
tp207
Rp208
ag5
(g9
S'\x00\x00\xd4>'
p209
tp210
Rp211
ag5
(g9
S'\x00\x00\xe0>'
p212
tp213
Rp214
ag5
(g9
S'\x00\x00\xfc>'
p215
tp216
Rp217
ag5
(g9
S'\x00\x00\xe0>'
p218
tp219
Rp220
ag5
(g9
S'\x00\x00\xe4>'
p221
tp222
Rp223
ag5
(g9
S'\x00\x00\xc8>'
p224
tp225
Rp226
ag5
(g9
S'\x00\x00\xe8>'
p227
tp228
Rp229
ag5
(g9
S'\x00\x00\xe4>'
p230
tp231
Rp232
ag5
(g9
S'\x00\x00\xc0>'
p233
tp234
Rp235
ag5
(g9
S'\x00\x00\xe8>'
p236
tp237
Rp238
ag5
(g9
S'\x00\x00\xd0>'
p239
tp240
Rp241
ag5
(g9
S'\x00\x00\xdc>'
p242
tp243
Rp244
ag5
(g9
S'\x00\x00\xe8>'
p245
tp246
Rp247
ag5
(g9
S'\x00\x00\xdc>'
p248
tp249
Rp250
ag5
(g9
S'\x00\x00\xf0>'
p251
tp252
Rp253
ag5
(g9
S'\x00\x00\xe8>'
p254
tp255
Rp256
ag5
(g9
S'\x00\x00\xdc>'
p257
tp258
Rp259
ag5
(g9
S'\x00\x00\xf8>'
p260
tp261
Rp262
ag5
(g9
S'\x00\x00\xd0>'
p263
tp264
Rp265
ag5
(g9
S'\x00\x00\x0e?'
p266
tp267
Rp268
ag5
(g9
S'\x00\x00\xcc>'
p269
tp270
Rp271
ag5
(g9
S'\x00\x00\x08?'
p272
tp273
Rp274
ag5
(g9
S'\x00\x00\x08?'
p275
tp276
Rp277
ag5
(g9
S'\x00\x00\xf8>'
p278
tp279
Rp280
ag5
(g9
S'\x00\x00\x0e?'
p281
tp282
Rp283
ag5
(g9
S'\x00\x00\x00?'
p284
tp285
Rp286
ag5
(g9
S'\x00\x00\x16?'
p287
tp288
Rp289
ag5
(g9
S'\x00\x00\x1a?'
p290
tp291
Rp292
ag5
(g9
S'\x00\x00\x16?'
p293
tp294
Rp295
ag5
(g9
S'\x00\x00\x10?'
p296
tp297
Rp298
ag5
(g9
S'\x00\x00\x00?'
p299
tp300
Rp301
ag5
(g9
S'\x00\x00\x0e?'
p302
tp303
Rp304
ag5
(g9
S'\x00\x00\x0c?'
p305
tp306
Rp307
ag5
(g9
S'\x00\x00\x10?'
p308
tp309
Rp310
ag5
(g9
S'\x00\x00\x08?'
p311
tp312
Rp313
ag5
(g9
S'\x00\x00\x0e?'
p314
tp315
Rp316
ag5
(g9
S'\x00\x00\xe4>'
p317
tp318
Rp319
asS'time'
p320
F446.343991
ssS'not pooling'
p321
(dp322
g3
(lp323
g5
(g9
S'\xf8\x18j>'
p324
tp325
Rp326
ag5
(g9
S'\xfe\n\x84>'
p327
tp328
Rp329
ag5
(g9
S'\\#\x8f>'
p330
tp331
Rp332
ag5
(g9
S'\xb31\x93>'
p333
tp334
Rp335
ag5
(g9
S'\x97\x11\xa0>'
p336
tp337
Rp338
ag5
(g9
S'-\xab\xa5>'
p339
tp340
Rp341
ag5
(g9
S'\x9b\x10\xaa>'
p342
tp343
Rp344
ag5
(g9
S'}\xf1\xac>'
p345
tp346
Rp347
ag5
(g9
S'\x8e\xef\xb2>'
p348
tp349
Rp350
ag5
(g9
S'\x81\xad\xb6>'
p351
tp352
Rp353
ag5
(g9
S'\xa1\xaa\xb8>'
p354
tp355
Rp356
ag5
(g9
S'\x0bS\xbd>'
p357
tp358
Rp359
ag5
(g9
S'\x03\xce\xc0>'
p360
tp361
Rp362
ag5
(g9
S'\xc27\xc2>'
p363
tp364
Rp365
ag5
(g9
S',\xbf\xc1>'
p366
tp367
Rp368
ag5
(g9
S'\x13\xab\xc1>'
p369
tp370
Rp371
ag5
(g9
S'7C\xc8>'
p372
tp373
Rp374
ag5
(g9
S'S\x14\xc8>'
p375
tp376
Rp377
ag5
(g9
S'\xcc*\xcb>'
p378
tp379
Rp380
ag5
(g9
S'\xb6\xd3\xca>'
p381
tp382
Rp383
ag5
(g9
S'\xb6\x16\xcb>'
p384
tp385
Rp386
ag5
(g9
S'Px\xcd>'
p387
tp388
Rp389
ag5
(g9
S'%9\xcf>'
p390
tp391
Rp392
ag5
(g9
S'\x82\x0f\xd0>'
p393
tp394
Rp395
ag5
(g9
S'\xabC\xd1>'
p396
tp397
Rp398
ag5
(g9
S'$\xeb\xd1>'
p399
tp400
Rp401
ag5
(g9
S'4\xc8\xd2>'
p402
tp403
Rp404
ag5
(g9
S'\xc4\xc6\xd3>'
p405
tp406
Rp407
ag5
(g9
S'\xc4\xc6\xd3>'
p408
tp409
Rp410
ag5
(g9
S'l\xd9\xd4>'
p411
tp412
Rp413
ag5
(g9
S'\x86\xed\xd4>'
p414
tp415
Rp416
ag5
(g9
S'\xc2x\xd6>'
p417
tp418
Rp419
ag5
(g9
S'57\xd5>'
p420
tp421
Rp422
ag5
(g9
S'v\x7f\xd6>'
p423
tp424
Rp425
ag5
(g9
S'B\x9a\xd6>'
p426
tp427
Rp428
ag5
(g9
S'.o\xd8>'
p429
tp430
Rp431
ag5
(g9
S'\xb0M\xd8>'
p432
tp433
Rp434
ag5
(g9
S'\xe8\xef\xd7>'
p435
tp436
Rp437
ag5
(g9
S'\xc9a\xd8>'
p438
tp439
Rp440
ag5
(g9
S'\xf6\x0f\xd9>'
p441
tp442
Rp443
ag5
(g9
S'\xbb\xb0\xd9>'
p444
tp445
Rp446
ag5
(g9
S'\xf3R\xd9>'
p447
tp448
Rp449
ag5
(g9
S'\xb1\xbc\xda>'
p450
tp451
Rp452
ag5
(g9
S'\xeb\x1b\xda>'
p453
tp454
Rp455
ag5
(g9
S'\xb4y\xda>'
p456
tp457
Rp458
ag5
(g9
S'\xb9\xf3\xd9>'
p459
tp460
Rp461
ag5
(g9
S'v\xa0\xdb>'
p462
tp463
Rp464
ag5
(g9
S'7\x15\xda>'
p465
tp466
Rp467
ag5
(g9
S'}\xd7\xda>'
p468
tp469
Rp470
ag5
(g9
S'a\x06\xdb>'
p471
tp472
Rp473
ag5
(g9
S'\xa7\xc8\xdb>'
p474
tp475
Rp476
asg165
(lp477
g5
(g9
S'\x00\x00\x94>'
p478
tp479
Rp480
ag5
(g9
S'\x00\x00\x8c>'
p481
tp482
Rp483
ag5
(g9
S'\x00\x00\x90>'
p484
tp485
Rp486
ag5
(g9
S'\x00\x00\x94>'
p487
tp488
Rp489
ag5
(g9
S'\x00\x00\x88>'
p490
tp491
Rp492
ag5
(g9
S'\x00\x00\xb4>'
p493
tp494
Rp495
ag5
(g9
S'\x00\x00\xb8>'
p496
tp497
Rp498
ag5
(g9
S'\x00\x00\x94>'
p499
tp500
Rp501
ag5
(g9
S'\x00\x00\x9c>'
p502
tp503
Rp504
ag5
(g9
S'\x00\x00\xa8>'
p505
tp506
Rp507
ag5
(g9
S'\x00\x00\xcc>'
p508
tp509
Rp510
ag5
(g9
S'\x00\x00\xf4>'
p511
tp512
Rp513
ag5
(g9
S'\x00\x00\xe0>'
p514
tp515
Rp516
ag5
(g9
S'\x00\x00\xd0>'
p517
tp518
Rp519
ag5
(g9
S'\x00\x00\xf4>'
p520
tp521
Rp522
ag5
(g9
S'\x00\x00\xd0>'
p523
tp524
Rp525
ag5
(g9
S'\x00\x00\xc4>'
p526
tp527
Rp528
ag5
(g9
S'\x00\x00\xd8>'
p529
tp530
Rp531
ag5
(g9
S'\x00\x00\xe4>'
p532
tp533
Rp534
ag5
(g9
S'\x00\x00\xc0>'
p535
tp536
Rp537
ag5
(g9
S'\x00\x00\x00?'
p538
tp539
Rp540
ag5
(g9
S'\x00\x00\xdc>'
p541
tp542
Rp543
ag5
(g9
S'\x00\x00\xec>'
p544
tp545
Rp546
ag5
(g9
S'\x00\x00\x00?'
p547
tp548
Rp549
ag5
(g9
S'\x00\x00\n?'
p550
tp551
Rp552
ag5
(g9
S'\x00\x00\xf0>'
p553
tp554
Rp555
ag5
(g9
S'\x00\x00\x00?'
p556
tp557
Rp558
ag5
(g9
S'\x00\x00\xe8>'
p559
tp560
Rp561
ag5
(g9
S'\x00\x00\xd4>'
p562
tp563
Rp564
ag5
(g9
S'\x00\x00\xfc>'
p565
tp566
Rp567
ag5
(g9
S'\x00\x00\n?'
p568
tp569
Rp570
ag5
(g9
S'\x00\x00\xf4>'
p571
tp572
Rp573
ag5
(g9
S'\x00\x00\x10?'
p574
tp575
Rp576
ag5
(g9
S'\x00\x00\x02?'
p577
tp578
Rp579
ag5
(g9
S'\x00\x00\x00?'
p580
tp581
Rp582
ag5
(g9
S'\x00\x00\xf4>'
p583
tp584
Rp585
ag5
(g9
S'\x00\x00\x06?'
p586
tp587
Rp588
ag5
(g9
S'\x00\x00\x08?'
p589
tp590
Rp591
ag5
(g9
S'\x00\x00\xd4>'
p592
tp593
Rp594
ag5
(g9
S'\x00\x00&?'
p595
tp596
Rp597
ag5
(g9
S'\x00\x00\x08?'
p598
tp599
Rp600
ag5
(g9
S'\x00\x00\x0c?'
p601
tp602
Rp603
ag5
(g9
S'\x00\x00\n?'
p604
tp605
Rp606
ag5
(g9
S'\x00\x00\xe0>'
p607
tp608
Rp609
ag5
(g9
S'\x00\x00\x0c?'
p610
tp611
Rp612
ag5
(g9
S'\x00\x00\xe4>'
p613
tp614
Rp615
ag5
(g9
S'\x00\x00\xf8>'
p616
tp617
Rp618
ag5
(g9
S'\x00\x00\x00?'
p619
tp620
Rp621
ag5
(g9
S'\x00\x00\x0c?'
p622
tp623
Rp624
ag5
(g9
S'\x00\x00\x18?'
p625
tp626
Rp627
ag5
(g9
S'\x00\x00\x10?'
p628
tp629
Rp630
asg320
F447.837068
ss.