(dp0
S'pooling'
p1
(dp2
S'test'
p3
cnumpy.core.multiarray
scalar
p4
(cnumpy
dtype
p5
(S'f4'
p6
I0
I1
tp7
Rp8
(I3
S'<'
p9
NNNI-1
I-1
I0
tp10
bS'\xca&\x1b>'
p11
tp12
Rp13
sS'train'
p14
g4
(g8
S'\x00\x00`>'
p15
tp16
Rp17
sS'time'
p18
F8.464444
ssS'not pooling'
p19
(dp20
g3
g4
(g8
S'Cb^>'
p21
tp22
Rp23
sg14
g4
(g8
S'\x00\x00\xf4>'
p24
tp25
Rp26
sg18
F43.72092
ss.